target datalayout = "e-m:e-p270:32:32-p271:32:32-p272:64:64-i64:64-i128:128-f80:128-n8:16:32:64-S128"
target triple = "x86_64-pc-linux-gnu"

%struct.Gia_Man_t_ = type { ptr, ptr, i32, i32, i32, i32, ptr, ptr, i32, i32, i32, ptr, ptr, %struct.Vec_Int_t_, %struct.Vec_Int_t_, i32, i32, i32, %struct.Vec_Int_t_, ptr, ptr, ptr, i32, i32, i32, i32, ptr, ptr, ptr, ptr, ptr, i32, i32, ptr, i32, ptr, ptr, ptr, ptr, ptr, ptr, ptr, ptr, ptr, ptr, ptr, ptr, ptr, ptr, ptr, ptr, ptr, ptr, %struct.Vec_Int_t_, %struct.Vec_Int_t_, ptr, ptr, ptr, ptr, ptr, ptr, ptr, ptr, ptr, ptr, ptr, ptr, ptr, ptr, ptr, ptr, ptr, ptr, ptr, ptr, ptr, i32, float, float, ptr, ptr, i32, ptr, ptr, ptr, ptr, ptr, ptr, ptr, ptr, ptr, ptr, ptr, ptr, ptr, ptr, ptr, i64, i64, ptr, ptr, i32, i32, i32, i32, i32, i32, i32, i32, i32, i32, i32, i32, ptr, ptr, ptr, ptr, ptr, ptr, ptr, ptr, i32, i32, i32, ptr, i32, i32, ptr, ptr, ptr, ptr, ptr, ptr, i32, i32, ptr, %struct.Vec_Int_t_, %struct.Vec_Int_t_, %struct.Vec_Int_t_, ptr, ptr, ptr, i32, i32, i32, i32, ptr, ptr, ptr, ptr, ptr }
%struct.Vec_Int_t_ = type { i32, i32, ptr }
%struct.Gia_Obj_t_ = type <{ i64, i32 }>

; Function Attrs: inlinehint nounwind uwtable
define internal i32 @Abc_LitNotCond(i32 noundef %0, i32 noundef %1) #2 {
  %3 = alloca i32, align 4
  %4 = alloca i32, align 4
  store i32 %0, ptr %3, align 4, !tbaa !33
  store i32 %1, ptr %4, align 4, !tbaa !33
  %5 = load i32, ptr %3, align 4, !tbaa !33
  %6 = load i32, ptr %4, align 4, !tbaa !33
  %7 = icmp sgt i32 %6, 0
  %8 = zext i1 %7 to i32
  %9 = xor i32 %5, %8
  ret i32 %9
}

; Function Attrs: inlinehint nounwind uwtable
define internal i32 @Gia_ObjFaninC0(ptr noundef %0) #2 {
  %2 = alloca ptr, align 8
  store ptr %0, ptr %2, align 8, !tbaa !34
  %3 = load ptr, ptr %2, align 8, !tbaa !34
  %4 = load i64, ptr %3, align 4
  %5 = lshr i64 %4, 29
  %6 = and i64 %5, 1
  %7 = trunc i64 %6 to i32
  ret i32 %7
}

; Function Attrs: inlinehint nounwind uwtable
define internal ptr @Gia_ManObj(ptr noundef %0, i32 noundef %1) #2 {
  %3 = alloca ptr, align 8
  %4 = alloca i32, align 4
  store ptr %0, ptr %3, align 8, !tbaa !3
  store i32 %1, ptr %4, align 4, !tbaa !33
  %5 = load ptr, ptr %3, align 8, !tbaa !3
  %6 = getelementptr inbounds nuw %struct.Gia_Man_t_, ptr %5, i32 0, i32 6
  %7 = load ptr, ptr %6, align 8, !tbaa !50
  %8 = load i32, ptr %4, align 4, !tbaa !33
  %9 = sext i32 %8 to i64
  %10 = getelementptr inbounds %struct.Gia_Obj_t_, ptr %7, i64 %9
  ret ptr %10
}

; Function Attrs: inlinehint nounwind uwtable
define internal i32 @Vec_IntEntry(ptr noundef %0, i32 noundef %1) #2 {
  %3 = alloca ptr, align 8
  %4 = alloca i32, align 4
  store ptr %0, ptr %3, align 8, !tbaa !8
  store i32 %1, ptr %4, align 4, !tbaa !33
  %5 = load ptr, ptr %3, align 8, !tbaa !8
  %6 = getelementptr inbounds nuw %struct.Vec_Int_t_, ptr %5, i32 0, i32 2
  %7 = load ptr, ptr %6, align 8, !tbaa !46
  %8 = load i32, ptr %4, align 4, !tbaa !33
  %9 = sext i32 %8 to i64
  %10 = getelementptr inbounds i32, ptr %7, i64 %9
  %11 = load i32, ptr %10, align 4, !tbaa !33
  ret i32 %11
}

; Function Attrs: inlinehint nounwind uwtable
define internal i32 @Vec_IntSize(ptr noundef %0) #2 {
  %2 = alloca ptr, align 8
  store ptr %0, ptr %2, align 8, !tbaa !8
  %3 = load ptr, ptr %2, align 8, !tbaa !8
  %4 = getelementptr inbounds nuw %struct.Vec_Int_t_, ptr %3, i32 0, i32 1
  %5 = load i32, ptr %4, align 4, !tbaa !44
  ret i32 %5
}

; Function Attrs: inlinehint nounwind uwtable
define internal i32 @Gia_ObjFanin0Copy(ptr noundef %0) #2 {
  %2 = alloca ptr, align 8
  store ptr %0, ptr %2, align 8, !tbaa !34
  %3 = load ptr, ptr %2, align 8, !tbaa !34
  %4 = call ptr @Gia_ObjFanin0(ptr noundef %3)
  %5 = getelementptr inbounds nuw %struct.Gia_Obj_t_, ptr %4, i32 0, i32 1
  %6 = load i32, ptr %5, align 4, !tbaa !31
  %7 = load ptr, ptr %2, align 8, !tbaa !34
  %8 = call i32 @Gia_ObjFaninC0(ptr noundef %7)
  %9 = call i32 @Abc_LitNotCond(i32 noundef %6, i32 noundef %8)
  ret i32 %9
}

; Function Attrs: inlinehint nounwind uwtable
define internal ptr @Gia_ObjFanin0(ptr noundef %0) #2 {
  %2 = alloca ptr, align 8
  store ptr %0, ptr %2, align 8, !tbaa !34
  %3 = load ptr, ptr %2, align 8, !tbaa !34
  %4 = load ptr, ptr %2, align 8, !tbaa !34
  %5 = load i64, ptr %4, align 4
  %6 = and i64 %5, 536870911
  %7 = trunc i64 %6 to i32
  %8 = sext i32 %7 to i64
  %9 = sub i64 0, %8
  %10 = getelementptr inbounds %struct.Gia_Obj_t_, ptr %3, i64 %9
  ret ptr %10
}

; Function Attrs: inlinehint nounwind uwtable
define internal ptr @Gia_ManCo(ptr noundef %0, i32 noundef %1) #2 {
  %3 = alloca ptr, align 8
  %4 = alloca i32, align 4
  store ptr %0, ptr %3, align 8, !tbaa !3
  store i32 %1, ptr %4, align 4, !tbaa !33
  %5 = load ptr, ptr %3, align 8, !tbaa !3
  %6 = load ptr, ptr %3, align 8, !tbaa !3
  %7 = getelementptr inbounds nuw %struct.Gia_Man_t_, ptr %6, i32 0, i32 12
  %8 = load ptr, ptr %7, align 8, !tbaa !55
  %9 = load i32, ptr %4, align 4, !tbaa !33
  %10 = call i32 @Vec_IntEntry(ptr noundef %8, i32 noundef %9)
  %11 = call ptr @Gia_ManObj(ptr noundef %5, i32 noundef %10)
  ret ptr %11
}

; Function Attrs: inlinehint nounwind uwtable
define internal i32 @Gia_ManPoNum(ptr noundef %0) #2 {
  %2 = alloca ptr, align 8
  store ptr %0, ptr %2, align 8, !tbaa !3
  %3 = load ptr, ptr %2, align 8, !tbaa !3
  %4 = getelementptr inbounds nuw %struct.Gia_Man_t_, ptr %3, i32 0, i32 12
  %5 = load ptr, ptr %4, align 8, !tbaa !55
  %6 = call i32 @Vec_IntSize(ptr noundef %5)
  %7 = load ptr, ptr %2, align 8, !tbaa !3
  %8 = getelementptr inbounds nuw %struct.Gia_Man_t_, ptr %7, i32 0, i32 2
  %9 = load i32, ptr %8, align 8, !tbaa !48
  %10 = sub nsw i32 %6, %9
  ret i32 %10
}

; Function Attrs: inlinehint nounwind uwtable
define internal ptr @Gia_ManPi(ptr noundef %0, i32 noundef %1) #2 {
  %3 = alloca ptr, align 8
  %4 = alloca i32, align 4
  store ptr %0, ptr %3, align 8, !tbaa !3
  store i32 %1, ptr %4, align 4, !tbaa !33
  %5 = load ptr, ptr %3, align 8, !tbaa !3
  %6 = load i32, ptr %4, align 4, !tbaa !33
  %7 = call ptr @Gia_ManCi(ptr noundef %5, i32 noundef %6)
  ret ptr %7
}

; Function Attrs: inlinehint nounwind uwtable
define internal ptr @Gia_ManCi(ptr noundef %0, i32 noundef %1) #2 {
  %3 = alloca ptr, align 8
  %4 = alloca i32, align 4
  store ptr %0, ptr %3, align 8, !tbaa !3
  store i32 %1, ptr %4, align 4, !tbaa !33
  %5 = load ptr, ptr %3, align 8, !tbaa !3
  %6 = load ptr, ptr %3, align 8, !tbaa !3
  %7 = getelementptr inbounds nuw %struct.Gia_Man_t_, ptr %6, i32 0, i32 11
  %8 = load ptr, ptr %7, align 8, !tbaa !47
  %9 = load i32, ptr %4, align 4, !tbaa !33
  %10 = call i32 @Vec_IntEntry(ptr noundef %8, i32 noundef %9)
  %11 = call ptr @Gia_ManObj(ptr noundef %5, i32 noundef %10)
  ret ptr %11
}

; Function Attrs: inlinehint nounwind uwtable
define internal i32 @Gia_ManPiNum(ptr noundef %0) #2 {
  %2 = alloca ptr, align 8
  store ptr %0, ptr %2, align 8, !tbaa !3
  %3 = load ptr, ptr %2, align 8, !tbaa !3
  %4 = getelementptr inbounds nuw %struct.Gia_Man_t_, ptr %3, i32 0, i32 11
  %5 = load ptr, ptr %4, align 8, !tbaa !47
  %6 = call i32 @Vec_IntSize(ptr noundef %5)
  %7 = load ptr, ptr %2, align 8, !tbaa !3
  %8 = getelementptr inbounds nuw %struct.Gia_Man_t_, ptr %7, i32 0, i32 2
  %9 = load i32, ptr %8, align 8, !tbaa !48
  %10 = sub nsw i32 %6, %9
  ret i32 %10
}

; Function Attrs: inlinehint nounwind uwtable
define internal i32 @Gia_ManRegNum(ptr noundef %0) #2 {
  %2 = alloca ptr, align 8
  store ptr %0, ptr %2, align 8, !tbaa !3
  %3 = load ptr, ptr %2, align 8, !tbaa !3
  %4 = getelementptr inbounds nuw %struct.Gia_Man_t_, ptr %3, i32 0, i32 2
  %5 = load i32, ptr %4, align 8, !tbaa !48
  ret i32 %5
}

; Function Attrs: inlinehint nounwind uwtable
define internal ptr @Gia_ManConst0(ptr noundef %0) #2 {
  %2 = alloca ptr, align 8
  store ptr %0, ptr %2, align 8, !tbaa !3
  %3 = load ptr, ptr %2, align 8, !tbaa !3
  %4 = getelementptr inbounds nuw %struct.Gia_Man_t_, ptr %3, i32 0, i32 6
  %5 = load ptr, ptr %4, align 8, !tbaa !50
  ret ptr %5
}

; Function Attrs: inlinehint nounwind uwtable
define internal ptr @Abc_UtilStrsav(ptr noundef %0) #2 {
  %2 = alloca ptr, align 8
  store ptr %0, ptr %2, align 8, !tbaa !49
  %3 = load ptr, ptr %2, align 8, !tbaa !49
  %4 = icmp ne ptr %3, null
  br i1 %4, label %5, label %13

5:                                                ; preds = %1
  %6 = load ptr, ptr %2, align 8, !tbaa !49
  %7 = call i64 @strlen(ptr noundef %6) #12
  %8 = add i64 %7, 1
  %9 = mul i64 1, %8
  %10 = call noalias ptr @malloc(i64 noundef %9) #11
  %11 = load ptr, ptr %2, align 8, !tbaa !49
  %12 = call ptr @strcpy(ptr noundef %10, ptr noundef %11) #10
  br label %14

13:                                               ; preds = %1
  br label %14

14:                                               ; preds = %13, %5
  %15 = phi ptr [ %12, %5 ], [ null, %13 ]
  ret ptr %15
}

; Function Attrs: inlinehint nounwind uwtable
define internal i32 @Gia_ManObjNum(ptr noundef %0) #2 {
  %2 = alloca ptr, align 8
  store ptr %0, ptr %2, align 8, !tbaa !3
  %3 = load ptr, ptr %2, align 8, !tbaa !3
  %4 = getelementptr inbounds nuw %struct.Gia_Man_t_, ptr %3, i32 0, i32 4
  %5 = load i32, ptr %4, align 8, !tbaa !39
  ret i32 %5
}

; Function Attrs: nounwind uwtable
define ptr @Gia_ManDupFf2In(ptr noundef %0, i32 noundef %1) #0 {
  %3 = alloca ptr, align 8
  %4 = alloca i32, align 4
  %5 = alloca ptr, align 8
  %6 = alloca ptr, align 8
  %7 = alloca i32, align 4
  store ptr %0, ptr %3, align 8, !tbaa !3
  store i32 %1, ptr %4, align 4, !tbaa !33
  call void @llvm.lifetime.start.p0(i64 8, ptr %5) #10
  call void @llvm.lifetime.start.p0(i64 8, ptr %6) #10
  call void @llvm.lifetime.start.p0(i64 4, ptr %7) #10
  %8 = load ptr, ptr %3, align 8, !tbaa !3
  %9 = call i32 @Gia_ManObjNum(ptr noundef %8)
  %10 = call ptr @Gia_ManStart(i32 noundef %9)
  store ptr %10, ptr %5, align 8, !tbaa !3
  %11 = load ptr, ptr %3, align 8, !tbaa !3
  %12 = getelementptr inbounds nuw %struct.Gia_Man_t_, ptr %11, i32 0, i32 0
  %13 = load ptr, ptr %12, align 8, !tbaa !10
  %14 = call ptr @Abc_UtilStrsav(ptr noundef %13)
  %15 = load ptr, ptr %5, align 8, !tbaa !3
  %16 = getelementptr inbounds nuw %struct.Gia_Man_t_, ptr %15, i32 0, i32 0
  store ptr %14, ptr %16, align 8, !tbaa !10
  %17 = load ptr, ptr %3, align 8, !tbaa !3
  %18 = getelementptr inbounds nuw %struct.Gia_Man_t_, ptr %17, i32 0, i32 1
  %19 = load ptr, ptr %18, align 8, !tbaa !30
  %20 = call ptr @Abc_UtilStrsav(ptr noundef %19)
  %21 = load ptr, ptr %5, align 8, !tbaa !3
  %22 = getelementptr inbounds nuw %struct.Gia_Man_t_, ptr %21, i32 0, i32 1
  store ptr %20, ptr %22, align 8, !tbaa !30
  %23 = load ptr, ptr %3, align 8, !tbaa !3
  call void @Gia_ManFillValue(ptr noundef %23)
  %24 = load ptr, ptr %3, align 8, !tbaa !3
  %25 = call ptr @Gia_ManConst0(ptr noundef %24)
  %26 = getelementptr inbounds nuw %struct.Gia_Obj_t_, ptr %25, i32 0, i32 1
  store i32 0, ptr %26, align 4, !tbaa !31
  store i32 0, ptr %7, align 4, !tbaa !33
  br label %27

27:                                               ; preds = %47, %2
  %28 = load i32, ptr %7, align 4, !tbaa !33
  %29 = load ptr, ptr %3, align 8, !tbaa !3
  %30 = call i32 @Gia_ManRegNum(ptr noundef %29)
  %31 = icmp slt i32 %28, %30
  br i1 %31, label %32, label %40

32:                                               ; preds = %27
  %33 = load ptr, ptr %3, align 8, !tbaa !3
  %34 = load ptr, ptr %3, align 8, !tbaa !3
  %35 = call i32 @Gia_ManPiNum(ptr noundef %34)
  %36 = load i32, ptr %7, align 4, !tbaa !33
  %37 = add nsw i32 %35, %36
  %38 = call ptr @Gia_ManCi(ptr noundef %33, i32 noundef %37)
  store ptr %38, ptr %6, align 8, !tbaa !34
  %39 = icmp ne ptr %38, null
  br label %40

40:                                               ; preds = %32, %27
  %41 = phi i1 [ false, %27 ], [ %39, %32 ]
  br i1 %41, label %42, label %50

42:                                               ; preds = %40
  %43 = load ptr, ptr %5, align 8, !tbaa !3
  %44 = call i32 @Gia_ManAppendCi(ptr noundef %43)
  %45 = load ptr, ptr %6, align 8, !tbaa !34
  %46 = getelementptr inbounds nuw %struct.Gia_Obj_t_, ptr %45, i32 0, i32 1
  store i32 %44, ptr %46, align 4, !tbaa !31
  br label %47

47:                                               ; preds = %42
  %48 = load i32, ptr %7, align 4, !tbaa !33
  %49 = add nsw i32 %48, 1
  store i32 %49, ptr %7, align 4, !tbaa !33
  br label %27, !llvm.loop !56

50:                                               ; preds = %40
  %51 = load ptr, ptr %3, align 8, !tbaa !3
  %52 = call i32 @Gia_ManPiNum(ptr noundef %51)
  %53 = load i32, ptr %4, align 4, !tbaa !33
  %54 = sub nsw i32 %52, %53
  store i32 %54, ptr %7, align 4, !tbaa !33
  br label %55

55:                                               ; preds = %67, %50
  %56 = load i32, ptr %7, align 4, !tbaa !33
  %57 = load ptr, ptr %3, align 8, !tbaa !3
  %58 = call i32 @Gia_ManPiNum(ptr noundef %57)
  %59 = icmp slt i32 %56, %58
  br i1 %59, label %60, label %70

60:                                               ; preds = %55
  %61 = load ptr, ptr %5, align 8, !tbaa !3
  %62 = call i32 @Gia_ManAppendCi(ptr noundef %61)
  %63 = load ptr, ptr %3, align 8, !tbaa !3
  %64 = load i32, ptr %7, align 4, !tbaa !33
  %65 = call ptr @Gia_ManPi(ptr noundef %63, i32 noundef %64)
  %66 = getelementptr inbounds nuw %struct.Gia_Obj_t_, ptr %65, i32 0, i32 1
  store i32 %62, ptr %66, align 4, !tbaa !31
  br label %67

67:                                               ; preds = %60
  %68 = load i32, ptr %7, align 4, !tbaa !33
  %69 = add nsw i32 %68, 1
  store i32 %69, ptr %7, align 4, !tbaa !33
  br label %55, !llvm.loop !57

70:                                               ; preds = %55
  store i32 0, ptr %7, align 4, !tbaa !33
  br label %71

71:                                               ; preds = %88, %70
  %72 = load i32, ptr %7, align 4, !tbaa !33
  %73 = load ptr, ptr %3, align 8, !tbaa !3
  %74 = call i32 @Gia_ManPoNum(ptr noundef %73)
  %75 = icmp slt i32 %72, %74
  br i1 %75, label %76, label %81

76:                                               ; preds = %71
  %77 = load ptr, ptr %3, align 8, !tbaa !3
  %78 = load i32, ptr %7, align 4, !tbaa !33
  %79 = call ptr @Gia_ManCo(ptr noundef %77, i32 noundef %78)
  store ptr %79, ptr %6, align 8, !tbaa !34
  %80 = icmp ne ptr %79, null
  br label %81

81:                                               ; preds = %76, %71
  %82 = phi i1 [ false, %71 ], [ %80, %76 ]
  br i1 %82, label %83, label %91

83:                                               ; preds = %81
  %84 = load ptr, ptr %5, align 8, !tbaa !3
  %85 = load ptr, ptr %6, align 8, !tbaa !34
  %86 = call ptr @Gia_ObjFanin0(ptr noundef %85)
  %87 = call i32 @Gia_ManDupFf2In_rec(ptr noundef %84, ptr noundef %86)
  br label %88

88:                                               ; preds = %83
  %89 = load i32, ptr %7, align 4, !tbaa !33
  %90 = add nsw i32 %89, 1
  store i32 %90, ptr %7, align 4, !tbaa !33
  br label %71, !llvm.loop !58

91:                                               ; preds = %81
  store i32 0, ptr %7, align 4, !tbaa !33
  br label %92

92:                                               ; preds = %109, %91
  %93 = load i32, ptr %7, align 4, !tbaa !33
  %94 = load ptr, ptr %3, align 8, !tbaa !3
  %95 = call i32 @Gia_ManPoNum(ptr noundef %94)
  %96 = icmp slt i32 %93, %95
  br i1 %96, label %97, label %102

97:                                               ; preds = %92
  %98 = load ptr, ptr %3, align 8, !tbaa !3
  %99 = load i32, ptr %7, align 4, !tbaa !33
  %100 = call ptr @Gia_ManCo(ptr noundef %98, i32 noundef %99)
  store ptr %100, ptr %6, align 8, !tbaa !34
  %101 = icmp ne ptr %100, null
  br label %102

102:                                              ; preds = %97, %92
  %103 = phi i1 [ false, %92 ], [ %101, %97 ]
  br i1 %103, label %104, label %112

104:                                              ; preds = %102
  %105 = load ptr, ptr %5, align 8, !tbaa !3
  %106 = load ptr, ptr %6, align 8, !tbaa !34
  %107 = call i32 @Gia_ObjFanin0Copy(ptr noundef %106)
  %108 = call i32 @Gia_ManAppendCo(ptr noundef %105, i32 noundef %107)
  br label %109

109:                                              ; preds = %104
  %110 = load i32, ptr %7, align 4, !tbaa !33
  %111 = add nsw i32 %110, 1
  store i32 %111, ptr %7, align 4, !tbaa !33
  br label %92, !llvm.loop !59

112:                                              ; preds = %102
  %113 = load ptr, ptr %5, align 8, !tbaa !3
  %114 = load i32, ptr %4, align 4, !tbaa !33
  call void @Gia_ManSetRegNum(ptr noundef %113, i32 noundef %114)
  %115 = load ptr, ptr %5, align 8, !tbaa !3
  call void @llvm.lifetime.end.p0(i64 4, ptr %7) #10
  call void @llvm.lifetime.end.p0(i64 8, ptr %6) #10
  call void @llvm.lifetime.end.p0(i64 8, ptr %5) #10
  ret ptr %115
}