; Function Attrs: nounwind uwtable
define ptr @Gia_ManDupFf2In(ptr noundef %0, i32 noundef %1) local_unnamed_addr #0 {
  %3 = getelementptr i8, ptr %0, i64 24
  %.val53 = load i32, ptr %3, align 8, !tbaa !32
  %4 = tail call ptr @Gia_ManStart(i32 noundef %.val53) #14
  %5 = load ptr, ptr %0, align 8, !tbaa !33
  %.not.i = icmp eq ptr %5, null
  br i1 %.not.i, label %Abc_UtilStrsav.exit, label %6

6:                                                ; preds = %2
  %7 = tail call i64 @strlen(ptr noundef nonnull readonly dereferenceable(1) %5) #15
  %8 = add i64 %7, 1
  %9 = tail call noalias ptr @malloc(i64 noundef %8) #13
  %10 = tail call ptr @strcpy(ptr noundef nonnull dereferenceable(1) %9, ptr noundef nonnull readonly dereferenceable(1) %5) #14
  br label %Abc_UtilStrsav.exit

Abc_UtilStrsav.exit:                              ; preds = %2, %6
  %11 = phi ptr [ %9, %6 ], [ null, %2 ]
  store ptr %11, ptr %4, align 8, !tbaa !33
  %12 = getelementptr inbounds nuw i8, ptr %0, i64 8
  %13 = load ptr, ptr %12, align 8, !tbaa !34
  %.not.i68 = icmp eq ptr %13, null
  br i1 %.not.i68, label %Abc_UtilStrsav.exit69, label %14

14:                                               ; preds = %Abc_UtilStrsav.exit
  %15 = tail call i64 @strlen(ptr noundef nonnull readonly dereferenceable(1) %13) #15
  %16 = add i64 %15, 1
  %17 = tail call noalias ptr @malloc(i64 noundef %16) #13
  %18 = tail call ptr @strcpy(ptr noundef nonnull dereferenceable(1) %17, ptr noundef nonnull readonly dereferenceable(1) %13) #14
  br label %Abc_UtilStrsav.exit69

Abc_UtilStrsav.exit69:                            ; preds = %Abc_UtilStrsav.exit, %14
  %19 = phi ptr [ %17, %14 ], [ null, %Abc_UtilStrsav.exit ]
  %20 = getelementptr inbounds nuw i8, ptr %4, i64 8
  store ptr %19, ptr %20, align 8, !tbaa !34
  tail call void @Gia_ManFillValue(ptr noundef nonnull %0) #14
  %21 = getelementptr i8, ptr %0, i64 32
  %.val54 = load ptr, ptr %21, align 8, !tbaa !35
  %22 = getelementptr inbounds nuw i8, ptr %.val54, i64 8
  store i32 0, ptr %22, align 4, !tbaa !36
  %23 = getelementptr i8, ptr %0, i64 16
  %.val5772 = load i32, ptr %23, align 8, !tbaa !3
  %.val57.neg73 = sub i32 0, %.val5772
  %24 = icmp sgt i32 %.val5772, 0
  br i1 %24, label %.lr.ph, label %.critedge

.lr.ph:                                           ; preds = %Abc_UtilStrsav.exit69
  %25 = getelementptr i8, ptr %0, i64 64
  %.val55116 = load ptr, ptr %21, align 8, !tbaa !35
  %.not117 = icmp eq ptr %.val55116, null
  br i1 %.not117, label %.critedge, label %.lr.ph121

26:                                               ; preds = %.lr.ph121
  %.val55 = load ptr, ptr %21, align 8, !tbaa !35
  %.not = icmp eq ptr %.val55, null
  br i1 %.not, label %.critedge, label %.lr.ph121, !llvm.loop !52

.lr.ph121:                                        ; preds = %.lr.ph, %26
  %.val55120 = phi ptr [ %.val55, %26 ], [ %.val55116, %.lr.ph ]
  %.074119 = phi i32 [ %37, %26 ], [ 0, %.lr.ph ]
  %.val57.neg75118 = phi i32 [ %.val57.neg, %26 ], [ %.val57.neg73, %.lr.ph ]
  %.val52 = load ptr, ptr %25, align 8, !tbaa !28
  %27 = getelementptr i8, ptr %.val52, i64 8
  %.val56.val = load ptr, ptr %27, align 8, !tbaa !31
  %28 = getelementptr i8, ptr %.val52, i64 4
  %.val52.val = load i32, ptr %28, align 4, !tbaa !29
  %29 = add i32 %.val57.neg75118, %.074119
  %30 = add i32 %29, %.val52.val
  %31 = sext i32 %30 to i64
  %32 = getelementptr inbounds i32, ptr %.val56.val, i64 %31
  %33 = load i32, ptr %32, align 4, !tbaa !40
  %34 = sext i32 %33 to i64
  %35 = tail call fastcc i32 @Gia_ManAppendCi(ptr noundef nonnull %4)
  %36 = getelementptr inbounds %struct.Gia_Obj_t_, ptr %.val55120, i64 %34, i32 1
  store i32 %35, ptr %36, align 4, !tbaa !36
  %37 = add nuw nsw i32 %.074119, 1
  %.val57 = load i32, ptr %23, align 8, !tbaa !3
  %.val57.neg = sub i32 0, %.val57
  %38 = icmp slt i32 %37, %.val57
  br i1 %38, label %26, label %.critedge, !llvm.loop !52

.critedge:                                        ; preds = %.lr.ph121, %26, %.lr.ph, %Abc_UtilStrsav.exit69
  %.val78 = phi i32 [ %.val5772, %Abc_UtilStrsav.exit69 ], [ %.val5772, %.lr.ph ], [ %.val57, %26 ], [ %.val57, %.lr.ph121 ]
  %.val57.neg.lcssa = phi i32 [ %.val57.neg73, %Abc_UtilStrsav.exit69 ], [ %.val57.neg73, %.lr.ph ], [ %.val57.neg, %26 ], [ %.val57.neg, %.lr.ph121 ]
  %39 = getelementptr i8, ptr %0, i64 64
  %.val50 = load ptr, ptr %39, align 8, !tbaa !28
  %40 = getelementptr i8, ptr %.val50, i64 4
  %.val50.val = load i32, ptr %40, align 4, !tbaa !29
  %.neg70 = sub i32 %.val57.neg.lcssa, %1
  %41 = add i32 %.neg70, %.val50.val
  %42 = sub nsw i32 %.val50.val, %.val78
  %43 = icmp slt i32 %41, %42
  br i1 %43, label %.lr.ph82.preheader, label %.preheader

.lr.ph82.preheader:                               ; preds = %.critedge
  %44 = sext i32 %41 to i64
  br label %.lr.ph82

.preheader:                                       ; preds = %.lr.ph82, %.critedge
  %.val6083 = phi i32 [ %.val78, %.critedge ], [ %.val, %.lr.ph82 ]
  %45 = getelementptr i8, ptr %0, i64 72
  %.val6184 = load ptr, ptr %45, align 8, !tbaa !44
  %46 = getelementptr i8, ptr %.val6184, i64 4
  %.val61.val85 = load i32, ptr %46, align 4, !tbaa !29
  %47 = icmp sgt i32 %.val61.val85, %.val6083
  br i1 %47, label %.lr.ph88.preheader, label %.critedge2

.lr.ph88.preheader:                               ; preds = %.preheader
  %.val64126 = load ptr, ptr %21, align 8, !tbaa !35
  %.not46127 = icmp eq ptr %.val64126, null
  br i1 %.not46127, label %.critedge2, label %.lr.ph131

.lr.ph82:                                         ; preds = %.lr.ph82.preheader, %.lr.ph82
  %indvars.iv = phi i64 [ %44, %.lr.ph82.preheader ], [ %indvars.iv.next, %.lr.ph82 ]
  %48 = tail call fastcc i32 @Gia_ManAppendCi(ptr noundef nonnull %4)
  %.val66 = load ptr, ptr %21, align 8, !tbaa !35
  %.val67 = load ptr, ptr %39, align 8, !tbaa !28
  %49 = getelementptr i8, ptr %.val67, i64 8
  %.val67.val = load ptr, ptr %49, align 8, !tbaa !31
  %50 = getelementptr inbounds i32, ptr %.val67.val, i64 %indvars.iv
  %51 = load i32, ptr %50, align 4, !tbaa !40
  %52 = sext i32 %51 to i64
  %53 = getelementptr inbounds %struct.Gia_Obj_t_, ptr %.val66, i64 %52, i32 1
  store i32 %48, ptr %53, align 4, !tbaa !36
  %indvars.iv.next = add nsw i64 %indvars.iv, 1
  %.val = load i32, ptr %23, align 8, !tbaa !3
  %54 = getelementptr i8, ptr %.val67, i64 4
  %.val48.val = load i32, ptr %54, align 4, !tbaa !29
  %55 = sub nsw i32 %.val48.val, %.val
  %56 = sext i32 %55 to i64
  %57 = icmp slt i64 %indvars.iv.next, %56
  br i1 %57, label %.lr.ph82, label %.preheader, !llvm.loop !53

.lr.ph88:                                         ; preds = %.lr.ph131
  %.val64 = load ptr, ptr %21, align 8, !tbaa !35
  %.not46 = icmp eq ptr %.val64, null
  br i1 %.not46, label %.critedge2, label %.lr.ph131, !llvm.loop !54

.lr.ph131:                                        ; preds = %.lr.ph88.preheader, %.lr.ph88
  %.val64130 = phi ptr [ %.val64, %.lr.ph88 ], [ %.val64126, %.lr.ph88.preheader ]
  %.val6187129 = phi ptr [ %.val61, %.lr.ph88 ], [ %.val6184, %.lr.ph88.preheader ]
  %indvars.iv98128 = phi i64 [ %indvars.iv.next99, %.lr.ph88 ], [ 0, %.lr.ph88.preheader ]
  %58 = getelementptr i8, ptr %.val6187129, i64 8
  %.val65.val = load ptr, ptr %58, align 8, !tbaa !31
  %59 = getelementptr inbounds nuw i32, ptr %.val65.val, i64 %indvars.iv98128
  %60 = load i32, ptr %59, align 4, !tbaa !40
  %61 = sext i32 %60 to i64
  %62 = getelementptr inbounds %struct.Gia_Obj_t_, ptr %.val64130, i64 %61
  %63 = load i64, ptr %62, align 4
  %64 = and i64 %63, 536870911
  %65 = sub nsw i64 0, %64
  %66 = getelementptr inbounds %struct.Gia_Obj_t_, ptr %62, i64 %65
  %67 = tail call i32 @Gia_ManDupFf2In_rec(ptr noundef nonnull %4, ptr noundef nonnull %66)
  %indvars.iv.next99 = add nuw nsw i64 %indvars.iv98128, 1
  %.val60 = load i32, ptr %23, align 8, !tbaa !3
  %.val61 = load ptr, ptr %45, align 8, !tbaa !44
  %68 = getelementptr i8, ptr %.val61, i64 4
  %.val61.val = load i32, ptr %68, align 4, !tbaa !29
  %69 = sub nsw i32 %.val61.val, %.val60
  %70 = sext i32 %69 to i64
  %71 = icmp slt i64 %indvars.iv.next99, %70
  br i1 %71, label %.lr.ph88, label %.critedge2, !llvm.loop !54

.critedge2:                                       ; preds = %.lr.ph131, %.lr.ph88, %.lr.ph88.preheader, %.preheader
  %.val59.val92 = phi i32 [ %.val61.val85, %.preheader ], [ %.val61.val85, %.lr.ph88.preheader ], [ %.val61.val, %.lr.ph88 ], [ %.val61.val, %.lr.ph131 ]
  %.val5991 = phi ptr [ %.val6184, %.preheader ], [ %.val6184, %.lr.ph88.preheader ], [ %.val61, %.lr.ph88 ], [ %.val61, %.lr.ph131 ]
  %.val5890 = phi i32 [ %.val6083, %.preheader ], [ %.val6083, %.lr.ph88.preheader ], [ %.val60, %.lr.ph88 ], [ %.val60, %.lr.ph131 ]
  %72 = icmp sgt i32 %.val59.val92, %.val5890
  br i1 %72, label %.lr.ph95, label %.critedge4

.lr.ph95:                                         ; preds = %.critedge2, %73
  %indvars.iv101 = phi i64 [ %indvars.iv.next102, %73 ], [ 0, %.critedge2 ]
  %.val5994 = phi ptr [ %.val59, %73 ], [ %.val5991, %.critedge2 ]
  %.val62 = load ptr, ptr %21, align 8, !tbaa !35
  %.not47 = icmp eq ptr %.val62, null
  br i1 %.not47, label %.critedge4, label %73

73:                                               ; preds = %.lr.ph95
  %74 = getelementptr i8, ptr %.val5994, i64 8
  %.val63.val = load ptr, ptr %74, align 8, !tbaa !31
  %75 = getelementptr inbounds nuw i32, ptr %.val63.val, i64 %indvars.iv101
  %76 = load i32, ptr %75, align 4, !tbaa !40
  %77 = sext i32 %76 to i64
  %78 = getelementptr inbounds %struct.Gia_Obj_t_, ptr %.val62, i64 %77
  %79 = load i64, ptr %78, align 4
  %80 = and i64 %79, 536870911
  %81 = sub nsw i64 0, %80
  %82 = getelementptr inbounds %struct.Gia_Obj_t_, ptr %78, i64 %81, i32 1
  %83 = load i32, ptr %82, align 4, !tbaa !36
  %84 = trunc i64 %79 to i32
  %85 = lshr i32 %84, 29
  %86 = and i32 %85, 1
  %87 = xor i32 %86, %83
  %88 = tail call fastcc i32 @Gia_ManAppendCo(ptr noundef nonnull %4, i32 noundef %87)
  %indvars.iv.next102 = add nuw nsw i64 %indvars.iv101, 1
  %.val58 = load i32, ptr %23, align 8, !tbaa !3
  %.val59 = load ptr, ptr %45, align 8, !tbaa !44
  %89 = getelementptr i8, ptr %.val59, i64 4
  %.val59.val = load i32, ptr %89, align 4, !tbaa !29
  %90 = sub nsw i32 %.val59.val, %.val58
  %91 = sext i32 %90 to i64
  %92 = icmp slt i64 %indvars.iv.next102, %91
  br i1 %92, label %.lr.ph95, label %.critedge4, !llvm.loop !55

.critedge4:                                       ; preds = %.lr.ph95, %73, %.critedge2
  tail call void @Gia_ManSetRegNum(ptr noundef nonnull %4, i32 noundef %1) #14
  ret ptr %4
}